; Function Attrs: mustprogress nounwind uwtable
define dso_local noundef ptr @_ZN4llvm10MCStreamer10endSectionEPNS_9MCSectionE(ptr noundef nonnull align 8 dereferenceable(288) %0, ptr noundef nonnull %1) local_unnamed_addr #0 align 2 {
  %3 = getelementptr inbounds nuw i8, ptr %0, i64 8
  %4 = load ptr, ptr %3, align 8
  %5 = tail call noundef ptr @_ZN4llvm9MCSection12getEndSymbolERNS_9MCContextE(ptr noundef nonnull align 8 dereferenceable(148) %1, ptr noundef nonnull align 8 dereferenceable(2432) %4) #23
  %6 = load ptr, ptr %5, align 8
  %.not.i.i.i.i = icmp eq ptr %6, null
  br i1 %.not.i.i.i.i, label %7, label %_ZNK4llvm8MCSymbol11isInSectionEv.exit

7:                                                ; preds = %2
  %8 = getelementptr inbounds nuw i8, ptr %5, i64 8
  %9 = load i64, ptr %8, align 8
  %10 = and i64 %9, 28800
  %or.cond.not.i.i.i.i = icmp eq i64 %10, 8192
  br i1 %or.cond.not.i.i.i.i, label %_ZNK4llvm8MCSymbol9isDefinedEv.exit.i, label %_ZNK4llvm8MCSymbol11isInSectionEv.exit.thread

_ZNK4llvm8MCSymbol9isDefinedEv.exit.i:            ; preds = %7
  %11 = or i64 %9, 8
  store i64 %11, ptr %8, align 8
  %12 = getelementptr inbounds nuw i8, ptr %5, i64 24
  %13 = load ptr, ptr %12, align 8
  %14 = tail call noundef ptr @_ZNK4llvm6MCExpr22findAssociatedFragmentEv(ptr noundef nonnull align 8 dereferenceable(16) %13) #23
  store ptr %14, ptr %5, align 8
  %.not.i = icmp eq ptr %14, null
  br i1 %.not.i, label %_ZNK4llvm8MCSymbol11isInSectionEv.exit.thread, label %_ZNK4llvm8MCSymbol11isInSectionEv.exit

_ZNK4llvm8MCSymbol11isInSectionEv.exit:           ; preds = %2, %_ZNK4llvm8MCSymbol9isDefinedEv.exit.i
  %.0.i.i.i = phi ptr [ %14, %_ZNK4llvm8MCSymbol9isDefinedEv.exit.i ], [ %6, %2 ]
  %15 = load ptr, ptr @_ZN4llvm8MCSymbol22AbsolutePseudoFragmentE, align 8
  %.not = icmp eq ptr %.0.i.i.i, %15
  br i1 %.not, label %_ZNK4llvm8MCSymbol11isInSectionEv.exit.thread, label %22

_ZNK4llvm8MCSymbol11isInSectionEv.exit.thread:    ; preds = %7, %_ZNK4llvm8MCSymbol9isDefinedEv.exit.i, %_ZNK4llvm8MCSymbol11isInSectionEv.exit
  %16 = load ptr, ptr %0, align 8
  %17 = getelementptr inbounds i8, ptr %16, i64 168
  %18 = load ptr, ptr %17, align 8
  tail call void %18(ptr noundef nonnull align 8 dereferenceable(288) %0, ptr noundef nonnull %1, i32 noundef 0) #23
  %19 = load ptr, ptr %0, align 8
  %20 = getelementptr inbounds i8, ptr %19, i64 200
  %21 = load ptr, ptr %20, align 8
  tail call void %21(ptr noundef nonnull align 8 dereferenceable(288) %0, ptr noundef nonnull %5, ptr null) #23
  br label %22

22:                                               ; preds = %_ZNK4llvm8MCSymbol11isInSectionEv.exit, %_ZNK4llvm8MCSymbol11isInSectionEv.exit.thread
  ret ptr %5
}